(lp0
(lp1
S'delainey-d'
p2
acnumpy.core.multiarray
scalar
p3
(cnumpy
dtype
p4
(S'b1'
p5
I0
I1
tp6
Rp7
(I3
S'|'
p8
NNNI-1
I-1
I0
tp9
bS'\x01'
p10
tp11
Rp12
aa(lp13
S'hayslett-r'
p14
ag3
(g7
S'\x00'
p15
tp16
Rp17
aa(lp18
S'lay-k'
p19
ag12
aa(lp20
S'mccarty-d'
p21
ag17
aa(lp22
S'skilling-j'
p23
ag12
aa.