(lp0
S'allen-p'
p1
aS'arnold-j'
p2
aS'arora-h'
p3
aS'badeer-r'
p4
aS'bailey-s'
p5
aS'bass-e'
p6
aS'baughman-d'
p7
aS'beck-s'
p8
aS'benson-r'
p9
aS'blair-l'
p10
aS'brawner-s'
p11
aS'buy-r'
p12
aS'campbell-l'
p13
aS'carson-m'
p14
aS'cash-m'
p15
aS'causholli-m'
p16
aS'corman-s'
p17
aS'crandell-s'
p18
aS'cuilla-m'
p19
aS'dasovich-j'
p20
aS'davis-d'
p21
aS'dean-c'
p22
aS'delainey-d'
p23
aS'derrick-j'
p24
aS'dickson-s'
p25
aS'donoho-l'
p26
aS'donohoe-t'
p27
aS'dorland-c'
p28
aS'ermis-f'
p29
aS'farmer-d'
p30
aS'fischer-m'
p31
aS'forney-j'
p32
aS'fossum-d'
p33
aS'from_email_w_names.pkl'
p34
aS'gang-l'
p35
aS'gay-r'
p36
aS'geaccone-t'
p37
aS'germany-c'
p38
aS'gilbertsmith-d'
p39
aS'giron-d'
p40
aS'griffith-j'
p41
aS'grigsby-m'
p42
aS'guzman-m'
p43
aS'haedicke-m'
p44
aS'hain-m'
p45
aS'harris-s'
p46
aS'hayslett-r'
p47
aS'heard-m'
p48
aS'hendrickson-s'
p49
aS'hernandez-j'
p50
aS'hodge-j'
p51
aS'holst-k'
p52
aS'horton-s'
p53
aS'hyatt-k'
p54
aS'hyvl-d'
p55
aS'jones-t'
p56
aS'kaminski-v'
p57
aS'kean-s'
p58
aS'keavey-p'
p59
aS'keiser-k'
p60
aS'king-j'
p61
aS'kitchen-l'
p62
aS'kuykendall-t'
p63
aS'lavorato-j'
p64
aS'lay-k'
p65
aS'lenhart-m'
p66
aS'lewis-a'
p67
aS'linder-e'
p68
aS'list_of_list.pkl'
p69
aS'lokay-m'
p70
aS'lokey-t'
p71
aS'love-p'
p72
aS'lucci-p'
p73
aS'maggi-m'
p74
aS'mann-k'
p75
aS'martin-t'
p76
aS'may-l'
p77
aS'mccarty-d'
p78
aS'mcconnell-m'
p79
aS'mckay-b'
p80
aS'mckay-j'
p81
aS'mclaughlin-e'
p82
aS'merriss-s'
p83
aS'meyers-a'
p84
aS'mims-thurston-p'
p85
aS'motley-m'
p86
aS'neal-s'
p87
aS'nemec-g'
p88
aS'panus-s'
p89
aS'parks-j'
p90
aS'pereira-s'
p91
aS'perlingiere-d'
p92
aS'phanis-s'
p93
aS'pimenov-v'
p94
aS'platter-p'
p95
aS'presto-k'
p96
aS'quenet-j'
p97
aS'quigley-d'
p98
aS'rapp-b'
p99
aS'reitmeyer-j'
p100
aS'richey-c'
p101
aS'ring-a'
p102
aS'ring-r'
p103
aS'rodrique-r'
p104
aS'rogers-b'
p105
aS'ruscitti-k'
p106
aS'sager-e'
p107
aS'saibi-e'
p108
aS'salisbury-h'
p109
aS'sanchez-m'
p110
aS'sanders-r'
p111
aS'scholtes-d'
p112
aS'schoolcraft-d'
p113
aS'schwieger-j'
p114
aS'scott-s'
p115
aS'semperger-c'
p116
aS'shackleton-s'
p117
aS'shankman-j'
p118
aS'shapiro-r'
p119
aS'shively-h'
p120
aS'skilling-j'
p121
aS'slinger-r'
p122
aS'smith-m'
p123
aS'solberg-g'
p124
aS'south-s'
p125
aS'staab-t'
p126
aS'stclair-c'
p127
aS'steffes-j'
p128
aS'stepenovitch-j'
p129
aS'stokley-c'
p130
aS'storey-g'
p131
aS'sturm-f'
p132
aS'swerzbin-m'
p133
aS'symes-k'
p134
aS'taylor-m'
p135
aS'tholt-j'
p136
aS'thomas-p'
p137
aS'townsend-j'
p138
aS'tycholiz-b'
p139
aS'ward-k'
p140
aS'watson-k'
p141
aS'weldon-c'
p142
aS'whalley-g'
p143
aS'whalley-l'
p144
aS'white-s'
p145
aS'whitt-m'
p146
aS'williams-j'
p147
aS'williams-w3'
p148
aS'wolfe-j'
p149
aS'ybarbo-p'
p150
aS'zipper-a'
p151
aS'zufferli-j'
p152
a.